target datalayout = "e-m:e-p270:32:32-p271:32:32-p272:64:64-i64:64-i128:128-f80:128-n8:16:32:64-S128"
target triple = "x86_64-pc-linux-gnu"

%struct.FunctionCallInfoBaseData = type { ptr, ptr, ptr, i32, i8, i16, [0 x %struct.NullableDatum] }
%struct.NullableDatum = type { i64, i8 }
%struct.PgBackendStatus = type { i32, i32, i32, i64, i64, i64, i64, i32, i32, %struct.SockAddr, ptr, i8, ptr, i8, ptr, i32, ptr, ptr, i32, i32, [20 x i64], i64 }
%struct.SockAddr = type { %struct.sockaddr_storage, i32 }
%struct.sockaddr_storage = type { i16, [118 x i8], i64 }

; Function Attrs: inlinehint nounwind uwtable
define internal i64 @PointerGetDatum(ptr noundef %0) #2 {
  %2 = alloca ptr, align 8
  store ptr %0, ptr %2, align 8
  %3 = load ptr, ptr %2, align 8
  %4 = ptrtoint ptr %3 to i64
  ret i64 %4
}

; Function Attrs: inlinehint nounwind uwtable
define internal i64 @CStringGetDatum(ptr noundef %0) #2 {
  %2 = alloca ptr, align 8
  store ptr %0, ptr %2, align 8
  %3 = load ptr, ptr %2, align 8
  %4 = call i64 @PointerGetDatum(ptr noundef %3)
  ret i64 %4
}

; Function Attrs: inlinehint nounwind uwtable
define internal i64 @Int32GetDatum(i32 noundef %0) #2 {
  %2 = alloca i32, align 4
  store i32 %0, ptr %2, align 4
  %3 = load i32, ptr %2, align 4
  %4 = sext i32 %3 to i64
  ret i64 %4
}

; Function Attrs: inlinehint nounwind uwtable
define internal zeroext i1 @pg_memory_is_all_zeros(ptr noundef %0, i64 noundef %1) #2 {
  %3 = alloca i1, align 1
  %4 = alloca ptr, align 8
  %5 = alloca i64, align 8
  %6 = alloca ptr, align 8
  %7 = alloca ptr, align 8
  %8 = alloca ptr, align 8
  %9 = alloca i32, align 4
  store ptr %0, ptr %4, align 8
  store i64 %1, ptr %5, align 8
  call void @llvm.lifetime.start.p0(i64 8, ptr %6) #10
  %10 = load ptr, ptr %4, align 8
  store ptr %10, ptr %6, align 8
  call void @llvm.lifetime.start.p0(i64 8, ptr %7) #10
  %11 = load ptr, ptr %6, align 8
  %12 = load i64, ptr %5, align 8
  %13 = getelementptr inbounds nuw i8, ptr %11, i64 %12
  store ptr %13, ptr %7, align 8
  call void @llvm.lifetime.start.p0(i64 8, ptr %8) #10
  %14 = load ptr, ptr %7, align 8
  %15 = ptrtoint ptr %14 to i64
  %16 = and i64 %15, -8
  %17 = inttoptr i64 %16 to ptr
  store ptr %17, ptr %8, align 8
  %18 = load i64, ptr %5, align 8
  %19 = icmp ult i64 %18, 8
  br i1 %19, label %20, label %34

20:                                               ; preds = %2
  br label %21

21:                                               ; preds = %32, %20
  %22 = load ptr, ptr %6, align 8
  %23 = load ptr, ptr %7, align 8
  %24 = icmp ult ptr %22, %23
  br i1 %24, label %25, label %33

25:                                               ; preds = %21
  %26 = load ptr, ptr %6, align 8
  %27 = getelementptr inbounds nuw i8, ptr %26, i32 1
  store ptr %27, ptr %6, align 8
  %28 = load i8, ptr %26, align 1
  %29 = zext i8 %28 to i32
  %30 = icmp ne i32 %29, 0
  br i1 %30, label %31, label %32

31:                                               ; preds = %25
  store i1 false, ptr %3, align 1
  store i32 1, ptr %9, align 4
  br label %191

32:                                               ; preds = %25
  br label %21, !llvm.loop !11

33:                                               ; preds = %21
  store i1 true, ptr %3, align 1
  store i32 1, ptr %9, align 4
  br label %191

34:                                               ; preds = %2
  %35 = load i64, ptr %5, align 8
  %36 = icmp ult i64 %35, 64
  br i1 %36, label %37, label %84

37:                                               ; preds = %34
  br label %38

38:                                               ; preds = %55, %37
  %39 = load ptr, ptr %6, align 8
  %40 = ptrtoint ptr %39 to i64
  %41 = and i64 %40, 7
  %42 = icmp ne i64 %41, 0
  br i1 %42, label %43, label %56

43:                                               ; preds = %38
  %44 = load ptr, ptr %6, align 8
  %45 = load ptr, ptr %7, align 8
  %46 = icmp eq ptr %44, %45
  br i1 %46, label %47, label %48

47:                                               ; preds = %43
  store i1 true, ptr %3, align 1
  store i32 1, ptr %9, align 4
  br label %191

48:                                               ; preds = %43
  %49 = load ptr, ptr %6, align 8
  %50 = getelementptr inbounds nuw i8, ptr %49, i32 1
  store ptr %50, ptr %6, align 8
  %51 = load i8, ptr %49, align 1
  %52 = zext i8 %51 to i32
  %53 = icmp ne i32 %52, 0
  br i1 %53, label %54, label %55

54:                                               ; preds = %48
  store i1 false, ptr %3, align 1
  store i32 1, ptr %9, align 4
  br label %191

55:                                               ; preds = %48
  br label %38, !llvm.loop !12

56:                                               ; preds = %38
  br label %57

57:                                               ; preds = %67, %56
  %58 = load ptr, ptr %6, align 8
  %59 = load ptr, ptr %8, align 8
  %60 = icmp ult ptr %58, %59
  br i1 %60, label %61, label %70

61:                                               ; preds = %57
  %62 = load ptr, ptr %6, align 8
  %63 = load i64, ptr %62, align 8
  %64 = icmp ne i64 %63, 0
  br i1 %64, label %65, label %66

65:                                               ; preds = %61
  store i1 false, ptr %3, align 1
  store i32 1, ptr %9, align 4
  br label %191

66:                                               ; preds = %61
  br label %67

67:                                               ; preds = %66
  %68 = load ptr, ptr %6, align 8
  %69 = getelementptr inbounds nuw i8, ptr %68, i64 8
  store ptr %69, ptr %6, align 8
  br label %57, !llvm.loop !13

70:                                               ; preds = %57
  br label %71

71:                                               ; preds = %82, %70
  %72 = load ptr, ptr %6, align 8
  %73 = load ptr, ptr %7, align 8
  %74 = icmp ult ptr %72, %73
  br i1 %74, label %75, label %83

75:                                               ; preds = %71
  %76 = load ptr, ptr %6, align 8
  %77 = getelementptr inbounds nuw i8, ptr %76, i32 1
  store ptr %77, ptr %6, align 8
  %78 = load i8, ptr %76, align 1
  %79 = zext i8 %78 to i32
  %80 = icmp ne i32 %79, 0
  br i1 %80, label %81, label %82

81:                                               ; preds = %75
  store i1 false, ptr %3, align 1
  store i32 1, ptr %9, align 4
  br label %191

82:                                               ; preds = %75
  br label %71, !llvm.loop !14

83:                                               ; preds = %71
  store i1 true, ptr %3, align 1
  store i32 1, ptr %9, align 4
  br label %191

84:                                               ; preds = %34
  br label %85

85:                                               ; preds = %102, %84
  %86 = load ptr, ptr %6, align 8
  %87 = ptrtoint ptr %86 to i64
  %88 = and i64 %87, 7
  %89 = icmp ne i64 %88, 0
  br i1 %89, label %90, label %103

90:                                               ; preds = %85
  %91 = load ptr, ptr %6, align 8
  %92 = load ptr, ptr %7, align 8
  %93 = icmp eq ptr %91, %92
  br i1 %93, label %94, label %95

94:                                               ; preds = %90
  store i1 true, ptr %3, align 1
  store i32 1, ptr %9, align 4
  br label %191

95:                                               ; preds = %90
  %96 = load ptr, ptr %6, align 8
  %97 = getelementptr inbounds nuw i8, ptr %96, i32 1
  store ptr %97, ptr %6, align 8
  %98 = load i8, ptr %96, align 1
  %99 = zext i8 %98 to i32
  %100 = icmp ne i32 %99, 0
  br i1 %100, label %101, label %102

101:                                              ; preds = %95
  store i1 false, ptr %3, align 1
  store i32 1, ptr %9, align 4
  br label %191

102:                                              ; preds = %95
  br label %85, !llvm.loop !15

103:                                              ; preds = %85
  br label %104

104:                                              ; preds = %160, %103
  %105 = load ptr, ptr %6, align 8
  %106 = load ptr, ptr %8, align 8
  %107 = getelementptr inbounds i8, ptr %106, i64 -56
  %108 = icmp ult ptr %105, %107
  br i1 %108, label %109, label %163

109:                                              ; preds = %104
  %110 = load ptr, ptr %6, align 8
  %111 = getelementptr inbounds i64, ptr %110, i64 0
  %112 = load i64, ptr %111, align 8
  %113 = icmp ne i64 %112, 0
  %114 = zext i1 %113 to i32
  %115 = load ptr, ptr %6, align 8
  %116 = getelementptr inbounds i64, ptr %115, i64 1
  %117 = load i64, ptr %116, align 8
  %118 = icmp ne i64 %117, 0
  %119 = zext i1 %118 to i32
  %120 = or i32 %114, %119
  %121 = load ptr, ptr %6, align 8
  %122 = getelementptr inbounds i64, ptr %121, i64 2
  %123 = load i64, ptr %122, align 8
  %124 = icmp ne i64 %123, 0
  %125 = zext i1 %124 to i32
  %126 = or i32 %120, %125
  %127 = load ptr, ptr %6, align 8
  %128 = getelementptr inbounds i64, ptr %127, i64 3
  %129 = load i64, ptr %128, align 8
  %130 = icmp ne i64 %129, 0
  %131 = zext i1 %130 to i32
  %132 = or i32 %126, %131
  %133 = load ptr, ptr %6, align 8
  %134 = getelementptr inbounds i64, ptr %133, i64 4
  %135 = load i64, ptr %134, align 8
  %136 = icmp ne i64 %135, 0
  %137 = zext i1 %136 to i32
  %138 = or i32 %132, %137
  %139 = load ptr, ptr %6, align 8
  %140 = getelementptr inbounds i64, ptr %139, i64 5
  %141 = load i64, ptr %140, align 8
  %142 = icmp ne i64 %141, 0
  %143 = zext i1 %142 to i32
  %144 = or i32 %138, %143
  %145 = load ptr, ptr %6, align 8
  %146 = getelementptr inbounds i64, ptr %145, i64 6
  %147 = load i64, ptr %146, align 8
  %148 = icmp ne i64 %147, 0
  %149 = zext i1 %148 to i32
  %150 = or i32 %144, %149
  %151 = load ptr, ptr %6, align 8
  %152 = getelementptr inbounds i64, ptr %151, i64 7
  %153 = load i64, ptr %152, align 8
  %154 = icmp ne i64 %153, 0
  %155 = zext i1 %154 to i32
  %156 = or i32 %150, %155
  %157 = icmp ne i32 %156, 0
  br i1 %157, label %158, label %159

158:                                              ; preds = %109
  store i1 false, ptr %3, align 1
  store i32 1, ptr %9, align 4
  br label %191

159:                                              ; preds = %109
  br label %160

160:                                              ; preds = %159
  %161 = load ptr, ptr %6, align 8
  %162 = getelementptr inbounds nuw i8, ptr %161, i64 64
  store ptr %162, ptr %6, align 8
  br label %104, !llvm.loop !16

163:                                              ; preds = %104
  br label %164

164:                                              ; preds = %174, %163
  %165 = load ptr, ptr %6, align 8
  %166 = load ptr, ptr %8, align 8
  %167 = icmp ult ptr %165, %166
  br i1 %167, label %168, label %177

168:                                              ; preds = %164
  %169 = load ptr, ptr %6, align 8
  %170 = load i64, ptr %169, align 8
  %171 = icmp ne i64 %170, 0
  br i1 %171, label %172, label %173

172:                                              ; preds = %168
  store i1 false, ptr %3, align 1
  store i32 1, ptr %9, align 4
  br label %191

173:                                              ; preds = %168
  br label %174

174:                                              ; preds = %173
  %175 = load ptr, ptr %6, align 8
  %176 = getelementptr inbounds nuw i8, ptr %175, i64 8
  store ptr %176, ptr %6, align 8
  br label %164, !llvm.loop !17

177:                                              ; preds = %164
  br label %178

178:                                              ; preds = %189, %177
  %179 = load ptr, ptr %6, align 8
  %180 = load ptr, ptr %7, align 8
  %181 = icmp ult ptr %179, %180
  br i1 %181, label %182, label %190

182:                                              ; preds = %178
  %183 = load ptr, ptr %6, align 8
  %184 = getelementptr inbounds nuw i8, ptr %183, i32 1
  store ptr %184, ptr %6, align 8
  %185 = load i8, ptr %183, align 1
  %186 = zext i8 %185 to i32
  %187 = icmp ne i32 %186, 0
  br i1 %187, label %188, label %189

188:                                              ; preds = %182
  store i1 false, ptr %3, align 1
  store i32 1, ptr %9, align 4
  br label %191

189:                                              ; preds = %182
  br label %178, !llvm.loop !18

190:                                              ; preds = %178
  store i1 true, ptr %3, align 1
  store i32 1, ptr %9, align 4
  br label %191

191:                                              ; preds = %190, %188, %172, %158, %101, %94, %83, %81, %65, %54, %47, %33, %31
  call void @llvm.lifetime.end.p0(i64 8, ptr %8) #10
  call void @llvm.lifetime.end.p0(i64 8, ptr %7) #10
  call void @llvm.lifetime.end.p0(i64 8, ptr %6) #10
  %192 = load i1, ptr %3, align 1
  ret i1 %192
}

; Function Attrs: inlinehint nounwind uwtable
define internal i32 @DatumGetInt32(i64 noundef %0) #2 {
  %2 = alloca i64, align 8
  store i64 %0, ptr %2, align 8
  %3 = load i64, ptr %2, align 8
  %4 = trunc i64 %3 to i32
  ret i32 %4
}

; Function Attrs: nounwind uwtable
define dso_local i64 @pg_stat_get_backend_client_port(ptr noundef %0) #0 {
  %2 = alloca i64, align 8
  %3 = alloca ptr, align 8
  %4 = alloca i32, align 4
  %5 = alloca ptr, align 8
  %6 = alloca [32 x i8], align 16
  %7 = alloca i32, align 4
  %8 = alloca i32, align 4
  store ptr %0, ptr %3, align 8
  call void @llvm.lifetime.start.p0(i64 4, ptr %4) #10
  %9 = load ptr, ptr %3, align 8
  %10 = getelementptr inbounds nuw %struct.FunctionCallInfoBaseData, ptr %9, i32 0, i32 6
  %11 = getelementptr inbounds [0 x %struct.NullableDatum], ptr %10, i64 0, i64 0
  %12 = getelementptr inbounds nuw %struct.NullableDatum, ptr %11, i32 0, i32 0
  %13 = load i64, ptr %12, align 8
  %14 = call i32 @DatumGetInt32(i64 noundef %13)
  store i32 %14, ptr %4, align 4
  call void @llvm.lifetime.start.p0(i64 8, ptr %5) #10
  call void @llvm.lifetime.start.p0(i64 32, ptr %6) #10
  call void @llvm.lifetime.start.p0(i64 4, ptr %7) #10
  %15 = load i32, ptr %4, align 4
  %16 = call ptr @pgstat_get_beentry_by_proc_number(i32 noundef %15)
  store ptr %16, ptr %5, align 8
  %17 = icmp eq ptr %16, null
  br i1 %17, label %18, label %24

18:                                               ; preds = %1
  br label %19

19:                                               ; preds = %18
  %20 = load ptr, ptr %3, align 8
  %21 = getelementptr inbounds nuw %struct.FunctionCallInfoBaseData, ptr %20, i32 0, i32 4
  store i8 1, ptr %21, align 4
  store i64 0, ptr %2, align 8
  store i32 1, ptr %8, align 4
  br label %89

22:                                               ; No predecessors!
  br label %23

23:                                               ; preds = %22
  br label %40

24:                                               ; preds = %1
  %25 = call i32 @GetUserId()
  %26 = call zeroext i1 @has_privs_of_role(i32 noundef %25, i32 noundef 3375)
  br i1 %26, label %39, label %27

27:                                               ; preds = %24
  %28 = call i32 @GetUserId()
  %29 = load ptr, ptr %5, align 8
  %30 = getelementptr inbounds nuw %struct.PgBackendStatus, ptr %29, i32 0, i32 8
  %31 = load i32, ptr %30, align 4
  %32 = call zeroext i1 @has_privs_of_role(i32 noundef %28, i32 noundef %31)
  br i1 %32, label %39, label %33

33:                                               ; preds = %27
  br label %34

34:                                               ; preds = %33
  %35 = load ptr, ptr %3, align 8
  %36 = getelementptr inbounds nuw %struct.FunctionCallInfoBaseData, ptr %35, i32 0, i32 4
  store i8 1, ptr %36, align 4
  store i64 0, ptr %2, align 8
  store i32 1, ptr %8, align 4
  br label %89

37:                                               ; No predecessors!
  br label %38

38:                                               ; preds = %37
  br label %39

39:                                               ; preds = %38, %27, %24
  br label %40

40:                                               ; preds = %39, %23
  %41 = load ptr, ptr %5, align 8
  %42 = getelementptr inbounds nuw %struct.PgBackendStatus, ptr %41, i32 0, i32 9
  %43 = call zeroext i1 @pg_memory_is_all_zeros(ptr noundef %42, i64 noundef 136)
  br i1 %43, label %44, label %50

44:                                               ; preds = %40
  br label %45

45:                                               ; preds = %44
  %46 = load ptr, ptr %3, align 8
  %47 = getelementptr inbounds nuw %struct.FunctionCallInfoBaseData, ptr %46, i32 0, i32 4
  store i8 1, ptr %47, align 4
  store i64 0, ptr %2, align 8
  store i32 1, ptr %8, align 4
  br label %89

48:                                               ; No predecessors!
  br label %49

49:                                               ; preds = %48
  br label %50

50:                                               ; preds = %49, %40
  %51 = load ptr, ptr %5, align 8
  %52 = getelementptr inbounds nuw %struct.PgBackendStatus, ptr %51, i32 0, i32 9
  %53 = getelementptr inbounds nuw %struct.SockAddr, ptr %52, i32 0, i32 0
  %54 = getelementptr inbounds nuw %struct.sockaddr_storage, ptr %53, i32 0, i32 0
  %55 = load i16, ptr %54, align 8
  %56 = zext i16 %55 to i32
  switch i32 %56, label %60 [
    i32 2, label %57
    i32 10, label %57
    i32 1, label %58
  ]

57:                                               ; preds = %50, %50
  br label %66

58:                                               ; preds = %50
  %59 = call i64 @Int32GetDatum(i32 noundef -1)
  store i64 %59, ptr %2, align 8
  store i32 1, ptr %8, align 4
  br label %89

60:                                               ; preds = %50
  br label %61

61:                                               ; preds = %60
  %62 = load ptr, ptr %3, align 8
  %63 = getelementptr inbounds nuw %struct.FunctionCallInfoBaseData, ptr %62, i32 0, i32 4
  store i8 1, ptr %63, align 4
  store i64 0, ptr %2, align 8
  store i32 1, ptr %8, align 4
  br label %89

64:                                               ; No predecessors!
  br label %65

65:                                               ; preds = %64
  br label %66

66:                                               ; preds = %65, %57
  %67 = getelementptr inbounds [32 x i8], ptr %6, i64 0, i64 0
  store i8 0, ptr %67, align 16
  %68 = load ptr, ptr %5, align 8
  %69 = getelementptr inbounds nuw %struct.PgBackendStatus, ptr %68, i32 0, i32 9
  %70 = getelementptr inbounds nuw %struct.SockAddr, ptr %69, i32 0, i32 0
  %71 = load ptr, ptr %5, align 8
  %72 = getelementptr inbounds nuw %struct.PgBackendStatus, ptr %71, i32 0, i32 9
  %73 = getelementptr inbounds nuw %struct.SockAddr, ptr %72, i32 0, i32 1
  %74 = load i32, ptr %73, align 8
  %75 = getelementptr inbounds [32 x i8], ptr %6, i64 0, i64 0
  %76 = call i32 @pg_getnameinfo_all(ptr noundef %70, i32 noundef %74, ptr noundef null, i32 noundef 0, ptr noundef %75, i32 noundef 32, i32 noundef 3)
  store i32 %76, ptr %7, align 4
  %77 = load i32, ptr %7, align 4
  %78 = icmp ne i32 %77, 0
  br i1 %78, label %79, label %85

79:                                               ; preds = %66
  br label %80

80:                                               ; preds = %79
  %81 = load ptr, ptr %3, align 8
  %82 = getelementptr inbounds nuw %struct.FunctionCallInfoBaseData, ptr %81, i32 0, i32 4
  store i8 1, ptr %82, align 4
  store i64 0, ptr %2, align 8
  store i32 1, ptr %8, align 4
  br label %89

83:                                               ; No predecessors!
  br label %84

84:                                               ; preds = %83
  br label %85

85:                                               ; preds = %84, %66
  %86 = getelementptr inbounds [32 x i8], ptr %6, i64 0, i64 0
  %87 = call i64 @CStringGetDatum(ptr noundef %86)
  %88 = call i64 @DirectFunctionCall1Coll(ptr noundef @int4in, i32 noundef 0, i64 noundef %87)
  store i64 %88, ptr %2, align 8
  store i32 1, ptr %8, align 4
  br label %89

89:                                               ; preds = %85, %80, %61, %58, %45, %34, %19
  call void @llvm.lifetime.end.p0(i64 4, ptr %7) #10
  call void @llvm.lifetime.end.p0(i64 32, ptr %6) #10
  call void @llvm.lifetime.end.p0(i64 8, ptr %5) #10
  call void @llvm.lifetime.end.p0(i64 4, ptr %4) #10
  %90 = load i64, ptr %2, align 8
  ret i64 %90
}