; Function Attrs: nounwind uwtable
define dso_local i64 @pg_stat_get_backend_client_port(ptr noundef captures(none) %0) local_unnamed_addr #0 {
  %2 = alloca [32 x i8], align 16
  %3 = getelementptr inbounds nuw i8, ptr %0, i64 32
  %4 = load i64, ptr %3, align 8
  %5 = trunc i64 %4 to i32
  call void @llvm.lifetime.start.p0(i64 32, ptr nonnull %2) #9
  %6 = tail call ptr @pgstat_get_beentry_by_proc_number(i32 noundef %5) #9
  %7 = icmp eq ptr %6, null
  br i1 %7, label %8, label %10

8:                                                ; preds = %1
  %9 = getelementptr inbounds nuw i8, ptr %0, i64 28
  store i8 1, ptr %9, align 4
  br label %78

10:                                               ; preds = %1
  %11 = tail call i32 @GetUserId() #9
  %12 = tail call zeroext i1 @has_privs_of_role(i32 noundef %11, i32 noundef 3375) #9
  br i1 %12, label %20, label %13

13:                                               ; preds = %10
  %14 = tail call i32 @GetUserId() #9
  %15 = getelementptr inbounds nuw i8, ptr %6, i64 52
  %16 = load i32, ptr %15, align 4
  %17 = tail call zeroext i1 @has_privs_of_role(i32 noundef %14, i32 noundef %16) #9
  br i1 %17, label %20, label %18

18:                                               ; preds = %13
  %19 = getelementptr inbounds nuw i8, ptr %0, i64 28
  store i8 1, ptr %19, align 4
  br label %78

20:                                               ; preds = %10, %13
  %21 = getelementptr inbounds nuw i8, ptr %6, i64 56
  %22 = ptrtoint ptr %21 to i64
  %23 = getelementptr inbounds nuw i8, ptr %6, i64 192
  %24 = ptrtoint ptr %23 to i64
  %25 = and i64 %24, -8
  %26 = inttoptr i64 %25 to ptr
  %27 = sub i64 0, %22
  %28 = and i64 %27, 7
  br label %29

29:                                               ; preds = %32, %20
  %.4.idx.i = phi i64 [ 0, %20 ], [ %.4.add.i, %32 ]
  %exitcond.i = icmp eq i64 %.4.idx.i, %28
  br i1 %exitcond.i, label %.preheader53.i, label %32

.preheader53.i:                                   ; preds = %29
  %30 = getelementptr inbounds i8, ptr %26, i64 -56
  %.5.ptr60.i = getelementptr inbounds nuw i8, ptr %21, i64 %28
  %31 = icmp ult ptr %.5.ptr60.i, %30
  br i1 %31, label %.lr.ph.i, label %.preheader51.i

32:                                               ; preds = %29
  %.4.ptr.i = getelementptr inbounds nuw i8, ptr %21, i64 %.4.idx.i
  %.4.add.i = add nuw nsw i64 %.4.idx.i, 1
  %33 = load i8, ptr %.4.ptr.i, align 1
  %.not50.i = icmp eq i8 %33, 0
  br i1 %.not50.i, label %29, label %.loopexit, !llvm.loop !10

.preheader51.i:                                   ; preds = %57, %.preheader53.i
  %.5.idx.lcssa.i = phi i64 [ %28, %.preheader53.i ], [ %.5.add.i, %57 ]
  %.6.ptr63.i = getelementptr inbounds nuw i8, ptr %21, i64 %.5.idx.lcssa.i
  %34 = icmp ult ptr %.6.ptr63.i, %26
  br i1 %34, label %.lr.ph66.i, label %.preheader.i.preheader

.lr.ph.i:                                         ; preds = %.preheader53.i, %57
  %.5.ptr62.i = phi ptr [ %.5.ptr.i, %57 ], [ %.5.ptr60.i, %.preheader53.i ]
  %.5.idx61.i = phi i64 [ %.5.add.i, %57 ], [ %28, %.preheader53.i ]
  %35 = load i64, ptr %.5.ptr62.i, align 8
  %36 = getelementptr inbounds nuw i8, ptr %.5.ptr62.i, i64 8
  %37 = load i64, ptr %36, align 8
  %38 = or i64 %37, %35
  %39 = getelementptr inbounds nuw i8, ptr %.5.ptr62.i, i64 16
  %40 = load i64, ptr %39, align 8
  %41 = or i64 %38, %40
  %42 = getelementptr inbounds nuw i8, ptr %.5.ptr62.i, i64 24
  %43 = load i64, ptr %42, align 8
  %44 = or i64 %41, %43
  %45 = getelementptr inbounds nuw i8, ptr %.5.ptr62.i, i64 32
  %46 = load i64, ptr %45, align 8
  %47 = or i64 %44, %46
  %48 = getelementptr inbounds nuw i8, ptr %.5.ptr62.i, i64 40
  %49 = load i64, ptr %48, align 8
  %50 = or i64 %47, %49
  %51 = getelementptr inbounds nuw i8, ptr %.5.ptr62.i, i64 48
  %52 = load i64, ptr %51, align 8
  %53 = or i64 %50, %52
  %54 = getelementptr inbounds nuw i8, ptr %.5.ptr62.i, i64 56
  %55 = load i64, ptr %54, align 8
  %56 = or i64 %53, %55
  %.not49.i = icmp eq i64 %56, 0
  br i1 %.not49.i, label %57, label %.loopexit

57:                                               ; preds = %.lr.ph.i
  %.5.add.i = add nuw nsw i64 %.5.idx61.i, 64
  %.5.ptr.i = getelementptr inbounds nuw i8, ptr %21, i64 %.5.add.i
  %58 = icmp ult ptr %.5.ptr.i, %30
  br i1 %58, label %.lr.ph.i, label %.preheader51.i, !llvm.loop !11

.lr.ph66.i:                                       ; preds = %.preheader51.i, %60
  %.6.ptr65.i = phi ptr [ %.6.ptr.i, %60 ], [ %.6.ptr63.i, %.preheader51.i ]
  %.6.idx64.i = phi i64 [ %.6.add.i, %60 ], [ %.5.idx.lcssa.i, %.preheader51.i ]
  %59 = load i64, ptr %.6.ptr65.i, align 8
  %.not48.i = icmp eq i64 %59, 0
  br i1 %.not48.i, label %60, label %.loopexit

60:                                               ; preds = %.lr.ph66.i
  %.6.add.i = add nuw nsw i64 %.6.idx64.i, 8
  %.6.ptr.i = getelementptr inbounds nuw i8, ptr %21, i64 %.6.add.i
  %61 = icmp ult ptr %.6.ptr.i, %26
  br i1 %61, label %.lr.ph66.i, label %.preheader.i.preheader, !llvm.loop !12

.preheader.i.preheader:                           ; preds = %60, %.preheader51.i
  %.7.idx.i.ph = phi i64 [ %.5.idx.lcssa.i, %.preheader51.i ], [ %.6.add.i, %60 ]
  br label %.preheader.i

.preheader.i:                                     ; preds = %.preheader.i.preheader, %63
  %.7.idx.i = phi i64 [ %.7.add.i, %63 ], [ %.7.idx.i.ph, %.preheader.i.preheader ]
  %62 = icmp ugt i64 %.7.idx.i, 135
  br i1 %62, label %pg_memory_is_all_zeros.exit, label %63

63:                                               ; preds = %.preheader.i
  %.7.ptr.i = getelementptr inbounds nuw i8, ptr %21, i64 %.7.idx.i
  %.7.add.i = add nuw nsw i64 %.7.idx.i, 1
  %64 = load i8, ptr %.7.ptr.i, align 1
  %.not47.i = icmp eq i8 %64, 0
  br i1 %.not47.i, label %.preheader.i, label %.loopexit, !llvm.loop !13

pg_memory_is_all_zeros.exit:                      ; preds = %.preheader.i
  %65 = getelementptr inbounds nuw i8, ptr %0, i64 28
  store i8 1, ptr %65, align 4
  br label %78

.loopexit:                                        ; preds = %32, %.lr.ph.i, %.lr.ph66.i, %63
  %66 = load i16, ptr %21, align 8
  switch i16 %66, label %67 [
    i16 2, label %69
    i16 10, label %69
    i16 1, label %78
  ]

67:                                               ; preds = %.loopexit
  %68 = getelementptr inbounds nuw i8, ptr %0, i64 28
  store i8 1, ptr %68, align 4
  br label %78

69:                                               ; preds = %.loopexit, %.loopexit
  store i8 0, ptr %2, align 16
  %70 = getelementptr inbounds nuw i8, ptr %6, i64 184
  %71 = load i32, ptr %70, align 8
  %72 = call i32 @pg_getnameinfo_all(ptr noundef nonnull %21, i32 noundef %71, ptr noundef null, i32 noundef 0, ptr noundef nonnull %2, i32 noundef 32, i32 noundef 3) #9
  %.not = icmp eq i32 %72, 0
  br i1 %.not, label %75, label %73

73:                                               ; preds = %69
  %74 = getelementptr inbounds nuw i8, ptr %0, i64 28
  store i8 1, ptr %74, align 4
  br label %78

75:                                               ; preds = %69
  %76 = ptrtoint ptr %2 to i64
  %77 = call i64 @DirectFunctionCall1Coll(ptr noundef nonnull @int4in, i32 noundef 0, i64 noundef %76) #9
  br label %78

78:                                               ; preds = %.loopexit, %75, %73, %67, %pg_memory_is_all_zeros.exit, %18, %8
  %.0 = phi i64 [ 0, %8 ], [ 0, %pg_memory_is_all_zeros.exit ], [ 0, %67 ], [ 0, %73 ], [ %77, %75 ], [ 0, %18 ], [ -1, %.loopexit ]
  call void @llvm.lifetime.end.p0(i64 32, ptr nonnull %2) #9
  ret i64 %.0
}